; Function Attrs: mustprogress nofree norecurse nosync nounwind willreturn memory(read, inaccessiblemem: none) uwtable
define dso_local noundef zeroext range(i8 0, 3) i8 @_ZN5clang17computeDependenceEPNS_21ImplicitValueInitExprE(ptr noundef readonly captures(none) %0) local_unnamed_addr #0 {
  %2 = getelementptr inbounds nuw i8, ptr %0, i64 8
  %.sroa.0.0.copyload.i = load i64, ptr %2, align 8
  %3 = and i64 %.sroa.0.0.copyload.i, -16
  %4 = inttoptr i64 %3 to ptr
  %5 = load ptr, ptr %4, align 16
  %6 = getelementptr inbounds nuw i8, ptr %5, i64 17
  %7 = load i16, ptr %6, align 1
  %8 = trunc i16 %7 to i8
  %9 = and i8 %8, 2
  ret i8 %9
}